; ModuleID = '38/985.c'
source_filename = "38/985.c"
target datalayout = "e-m:e-p270:32:32-p271:32:32-p272:64:64-i64:64-f80:128-n8:16:32:64-S128"
target triple = "x86_64-pc-linux-gnu"

@.str = private unnamed_addr constant [3 x i8] c"%d\00", align 1
@.str.1 = private unnamed_addr constant [4 x i8] c"%lf\00", align 1
@.str.2 = private unnamed_addr constant [7 x i8] c"%.5lf\0A\00", align 1

; Function Attrs: noinline nounwind uwtable
define dso_local i32 @main() #0 {
  %1 = alloca i32, align 4
  %2 = alloca i32, align 4
  %3 = alloca i32, align 4
  %4 = alloca i32, align 4
  %5 = alloca [100 x i32], align 16
  %6 = alloca [100 x [1000 x double]], align 16
  %7 = alloca [100 x double], align 16
  %8 = alloca [100 x double], align 16
  %9 = alloca [100 x double], align 16
  %10 = alloca [100 x double], align 16
  store i32 0, i32* %1, align 4
  %11 = call i32 (i8*, ...) @__isoc99_scanf(i8* getelementptr inbounds ([3 x i8], [3 x i8]* @.str, i64 0, i64 0), i32* %2)
  store i32 0, i32* %3, align 4
  br label %12

12:                                               ; preds = %40, %0
  %13 = load i32, i32* %3, align 4
  %14 = load i32, i32* %2, align 4
  %15 = icmp slt i32 %13, %14
  br i1 %15, label %16, label %43

16:                                               ; preds = %12
  %17 = load i32, i32* %3, align 4
  %18 = sext i32 %17 to i64
  %19 = getelementptr inbounds [100 x i32], [100 x i32]* %5, i64 0, i64 %18
  %20 = call i32 (i8*, ...) @__isoc99_scanf(i8* getelementptr inbounds ([3 x i8], [3 x i8]* @.str, i64 0, i64 0), i32* %19)
  store i32 0, i32* %4, align 4
  br label %21

21:                                               ; preds = %36, %16
  %22 = load i32, i32* %4, align 4
  %23 = load i32, i32* %3, align 4
  %24 = sext i32 %23 to i64
  %25 = getelementptr inbounds [100 x i32], [100 x i32]* %5, i64 0, i64 %24
  %26 = load i32, i32* %25, align 4
  %27 = icmp slt i32 %22, %26
  br i1 %27, label %28, label %39

28:                                               ; preds = %21
  %29 = load i32, i32* %3, align 4
  %30 = sext i32 %29 to i64
  %31 = getelementptr inbounds [100 x [1000 x double]], [100 x [1000 x double]]* %6, i64 0, i64 %30
  %32 = load i32, i32* %4, align 4
  %33 = sext i32 %32 to i64
  %34 = getelementptr inbounds [1000 x double], [1000 x double]* %31, i64 0, i64 %33
  %35 = call i32 (i8*, ...) @__isoc99_scanf(i8* getelementptr inbounds ([4 x i8], [4 x i8]* @.str.1, i64 0, i64 0), double* %34)
  br label %36

36:                                               ; preds = %28
  %37 = load i32, i32* %4, align 4
  %38 = add nsw i32 %37, 1
  store i32 %38, i32* %4, align 4
  br label %21

39:                                               ; preds = %21
  br label %40

40:                                               ; preds = %39
  %41 = load i32, i32* %3, align 4
  %42 = add nsw i32 %41, 1
  store i32 %42, i32* %3, align 4
  br label %12

43:                                               ; preds = %12
  store i32 0, i32* %3, align 4
  br label %44

44:                                               ; preds = %175, %43
  %45 = load i32, i32* %3, align 4
  %46 = load i32, i32* %2, align 4
  %47 = icmp slt i32 %45, %46
  br i1 %47, label %48, label %178

48:                                               ; preds = %44
  %49 = load i32, i32* %3, align 4
  %50 = sext i32 %49 to i64
  %51 = getelementptr inbounds [100 x double], [100 x double]* %10, i64 0, i64 %50
  store double 0.000000e+00, double* %51, align 8
  %52 = load i32, i32* %3, align 4
  %53 = sext i32 %52 to i64
  %54 = getelementptr inbounds [100 x double], [100 x double]* %9, i64 0, i64 %53
  store double 0.000000e+00, double* %54, align 8
  %55 = load i32, i32* %3, align 4
  %56 = sext i32 %55 to i64
  %57 = getelementptr inbounds [100 x double], [100 x double]* %8, i64 0, i64 %56
  store double 0.000000e+00, double* %57, align 8
  store i32 0, i32* %4, align 4
  br label %58

58:                                               ; preds = %78, %48
  %59 = load i32, i32* %4, align 4
  %60 = load i32, i32* %3, align 4
  %61 = sext i32 %60 to i64
  %62 = getelementptr inbounds [100 x i32], [100 x i32]* %5, i64 0, i64 %61
  %63 = load i32, i32* %62, align 4
  %64 = icmp slt i32 %59, %63
  br i1 %64, label %65, label %81

65:                                               ; preds = %58
  %66 = load i32, i32* %3, align 4
  %67 = sext i32 %66 to i64
  %68 = getelementptr inbounds [100 x [1000 x double]], [100 x [1000 x double]]* %6, i64 0, i64 %67
  %69 = load i32, i32* %4, align 4
  %70 = sext i32 %69 to i64
  %71 = getelementptr inbounds [1000 x double], [1000 x double]* %68, i64 0, i64 %70
  %72 = load double, double* %71, align 8
  %73 = load i32, i32* %3, align 4
  %74 = sext i32 %73 to i64
  %75 = getelementptr inbounds [100 x double], [100 x double]* %9, i64 0, i64 %74
  %76 = load double, double* %75, align 8
  %77 = fadd double %76, %72
  store double %77, double* %75, align 8
  br label %78

78:                                               ; preds = %65
  %79 = load i32, i32* %4, align 4
  %80 = add nsw i32 %79, 1
  store i32 %80, i32* %4, align 4
  br label %58

81:                                               ; preds = %58
  store i32 0, i32* %4, align 4
  br label %82

82:                                               ; preds = %103, %81
  %83 = load i32, i32* %4, align 4
  %84 = load i32, i32* %3, align 4
  %85 = sext i32 %84 to i64
  %86 = getelementptr inbounds [100 x i32], [100 x i32]* %5, i64 0, i64 %85
  %87 = load i32, i32* %86, align 4
  %88 = icmp slt i32 %83, %87
  br i1 %88, label %89, label %106

89:                                               ; preds = %82
  %90 = load i32, i32* %3, align 4
  %91 = sext i32 %90 to i64
  %92 = getelementptr inbounds [100 x double], [100 x double]* %9, i64 0, i64 %91
  %93 = load double, double* %92, align 8
  %94 = load i32, i32* %3, align 4
  %95 = sext i32 %94 to i64
  %96 = getelementptr inbounds [100 x i32], [100 x i32]* %5, i64 0, i64 %95
  %97 = load i32, i32* %96, align 4
  %98 = sitofp i32 %97 to double
  %99 = fdiv double %93, %98
  %100 = load i32, i32* %3, align 4
  %101 = sext i32 %100 to i64
  %102 = getelementptr inbounds [100 x double], [100 x double]* %8, i64 0, i64 %101
  store double %99, double* %102, align 8
  br label %103

103:                                              ; preds = %89
  %104 = load i32, i32* %4, align 4
  %105 = add nsw i32 %104, 1
  store i32 %105, i32* %4, align 4
  br label %82

106:                                              ; preds = %82
  store i32 0, i32* %4, align 4
  br label %107

107:                                              ; preds = %145, %106
  %108 = load i32, i32* %4, align 4
  %109 = load i32, i32* %3, align 4
  %110 = sext i32 %109 to i64
  %111 = getelementptr inbounds [100 x i32], [100 x i32]* %5, i64 0, i64 %110
  %112 = load i32, i32* %111, align 4
  %113 = icmp slt i32 %108, %112
  br i1 %113, label %114, label %148

114:                                              ; preds = %107
  %115 = load i32, i32* %3, align 4
  %116 = sext i32 %115 to i64
  %117 = getelementptr inbounds [100 x [1000 x double]], [100 x [1000 x double]]* %6, i64 0, i64 %116
  %118 = load i32, i32* %4, align 4
  %119 = sext i32 %118 to i64
  %120 = getelementptr inbounds [1000 x double], [1000 x double]* %117, i64 0, i64 %119
  %121 = load double, double* %120, align 8
  %122 = load i32, i32* %3, align 4
  %123 = sext i32 %122 to i64
  %124 = getelementptr inbounds [100 x double], [100 x double]* %8, i64 0, i64 %123
  %125 = load double, double* %124, align 8
  %126 = fsub double %121, %125
  %127 = load i32, i32* %3, align 4
  %128 = sext i32 %127 to i64
  %129 = getelementptr inbounds [100 x [1000 x double]], [100 x [1000 x double]]* %6, i64 0, i64 %128
  %130 = load i32, i32* %4, align 4
  %131 = sext i32 %130 to i64
  %132 = getelementptr inbounds [1000 x double], [1000 x double]* %129, i64 0, i64 %131
  %133 = load double, double* %132, align 8
  %134 = load i32, i32* %3, align 4
  %135 = sext i32 %134 to i64
  %136 = getelementptr inbounds [100 x double], [100 x double]* %8, i64 0, i64 %135
  %137 = load double, double* %136, align 8
  %138 = fsub double %133, %137
  %139 = fmul double %126, %138
  %140 = load i32, i32* %3, align 4
  %141 = sext i32 %140 to i64
  %142 = getelementptr inbounds [100 x double], [100 x double]* %10, i64 0, i64 %141
  %143 = load double, double* %142, align 8
  %144 = fadd double %143, %139
  store double %144, double* %142, align 8
  br label %145

145:                                              ; preds = %114
  %146 = load i32, i32* %4, align 4
  %147 = add nsw i32 %146, 1
  store i32 %147, i32* %4, align 4
  br label %107

148:                                              ; preds = %107
  store i32 0, i32* %4, align 4
  br label %149

149:                                              ; preds = %171, %148
  %150 = load i32, i32* %4, align 4
  %151 = load i32, i32* %3, align 4
  %152 = sext i32 %151 to i64
  %153 = getelementptr inbounds [100 x i32], [100 x i32]* %5, i64 0, i64 %152
  %154 = load i32, i32* %153, align 4
  %155 = icmp slt i32 %150, %154
  br i1 %155, label %156, label %174

156:                                              ; preds = %149
  %157 = load i32, i32* %3, align 4
  %158 = sext i32 %157 to i64
  %159 = getelementptr inbounds [100 x double], [100 x double]* %10, i64 0, i64 %158
  %160 = load double, double* %159, align 8
  %161 = load i32, i32* %3, align 4
  %162 = sext i32 %161 to i64
  %163 = getelementptr inbounds [100 x i32], [100 x i32]* %5, i64 0, i64 %162
  %164 = load i32, i32* %163, align 4
  %165 = sitofp i32 %164 to double
  %166 = fdiv double %160, %165
  %167 = call double @sqrt(double %166) #3
  %168 = load i32, i32* %3, align 4
  %169 = sext i32 %168 to i64
  %170 = getelementptr inbounds [100 x double], [100 x double]* %7, i64 0, i64 %169
  store double %167, double* %170, align 8
  br label %171

171:                                              ; preds = %156
  %172 = load i32, i32* %4, align 4
  %173 = add nsw i32 %172, 1
  store i32 %173, i32* %4, align 4
  br label %149

174:                                              ; preds = %149
  br label %175

175:                                              ; preds = %174
  %176 = load i32, i32* %3, align 4
  %177 = add nsw i32 %176, 1
  store i32 %177, i32* %3, align 4
  br label %44

178:                                              ; preds = %44
  store i32 0, i32* %3, align 4
  br label %179

179:                                              ; preds = %189, %178
  %180 = load i32, i32* %3, align 4
  %181 = load i32, i32* %2, align 4
  %182 = icmp slt i32 %180, %181
  br i1 %182, label %183, label %192

183:                                              ; preds = %179
  %184 = load i32, i32* %3, align 4
  %185 = sext i32 %184 to i64
  %186 = getelementptr inbounds [100 x double], [100 x double]* %7, i64 0, i64 %185
  %187 = load double, double* %186, align 8
  %188 = call i32 (i8*, ...) @printf(i8* getelementptr inbounds ([7 x i8], [7 x i8]* @.str.2, i64 0, i64 0), double %187)
  br label %189

189:                                              ; preds = %183
  %190 = load i32, i32* %3, align 4
  %191 = add nsw i32 %190, 1
  store i32 %191, i32* %3, align 4
  br label %179

192:                                              ; preds = %179
  ret i32 0
}

declare dso_local i32 @__isoc99_scanf(i8*, ...) #1

; Function Attrs: nounwind
declare dso_local double @sqrt(double) #2

declare dso_local i32 @printf(i8*, ...) #1


!llvm.module.flags = !{!0}
!llvm.ident = !{!1}

!0 = !{i32 1, !"wchar_size", i32 4}
!1 = !{!"clang version 10.0.0-4ubuntu1 "}
